target datalayout = "e-m:e-p270:32:32-p271:32:32-p272:64:64-i64:64-i128:128-f80:128-n8:16:32:64-S128"
target triple = "x86_64-pc-linux-gnu"

%struct.Agobj_s = type { %struct.Agtag_s, ptr }
%struct.Agtag_s = type { i32, i64 }
%struct.ndata = type { %struct.Agrec_s, i32 }
%struct.Agrec_s = type { ptr, ptr }
%struct.Agedge_s = type { %struct.Agobj_s, %struct.dtlink_s_, %struct.dtlink_s_, ptr }
%struct.dtlink_s_ = type { ptr, %union.anon.0 }
%union.anon.0 = type { ptr }

@verbose = dso_local global i32 0, align 4
@stderr = external global ptr, align 8
@.str.7 = private unnamed_addr constant [27 x i8] c"Processing descendant: %s\0A\00", align 1

; Function Attrs: nounwind uwtable
define internal i32 @remove_child(ptr noundef %0, ptr noundef %1) #0 {
  %3 = alloca i32, align 4
  %4 = alloca ptr, align 8
  %5 = alloca ptr, align 8
  %6 = alloca ptr, align 8
  %7 = alloca ptr, align 8
  %8 = alloca i32, align 4
  store ptr %0, ptr %4, align 8, !tbaa !21
  store ptr %1, ptr %5, align 8, !tbaa !25
  call void @llvm.lifetime.start.p0(i64 8, ptr %6) #12
  call void @llvm.lifetime.start.p0(i64 8, ptr %7) #12
  %9 = load ptr, ptr %5, align 8, !tbaa !25
  %10 = getelementptr inbounds nuw %struct.Agobj_s, ptr %9, i32 0, i32 1
  %11 = load ptr, ptr %10, align 8, !tbaa !27
  %12 = getelementptr inbounds nuw %struct.ndata, ptr %11, i32 0, i32 1
  %13 = load i32, ptr %12, align 8, !tbaa !31
  %14 = and i32 %13, 1
  %15 = icmp ne i32 %14, 0
  br i1 %15, label %16, label %17

16:                                               ; preds = %2
  store i32 0, ptr %3, align 4
  store i32 1, ptr %8, align 4
  br label %115

17:                                               ; preds = %2
  %18 = load ptr, ptr %5, align 8, !tbaa !25
  %19 = getelementptr inbounds nuw %struct.Agobj_s, ptr %18, i32 0, i32 1
  %20 = load ptr, ptr %19, align 8, !tbaa !27
  %21 = getelementptr inbounds nuw %struct.ndata, ptr %20, i32 0, i32 1
  store i32 1, ptr %21, align 8, !tbaa !31
  %22 = load ptr, ptr %4, align 8, !tbaa !21
  %23 = load ptr, ptr %5, align 8, !tbaa !25
  %24 = call ptr @agfstin(ptr noundef %22, ptr noundef %23)
  store ptr %24, ptr %6, align 8, !tbaa !34
  %25 = load ptr, ptr %6, align 8, !tbaa !34
  %26 = icmp ne ptr %25, null
  br i1 %26, label %27, label %37

27:                                               ; preds = %17
  %28 = load ptr, ptr %4, align 8, !tbaa !21
  %29 = load ptr, ptr %6, align 8, !tbaa !34
  %30 = call ptr @agnxtin(ptr noundef %28, ptr noundef %29)
  %31 = icmp ne ptr %30, null
  br i1 %31, label %32, label %37

32:                                               ; preds = %27
  %33 = load ptr, ptr %5, align 8, !tbaa !25
  %34 = getelementptr inbounds nuw %struct.Agobj_s, ptr %33, i32 0, i32 1
  %35 = load ptr, ptr %34, align 8, !tbaa !27
  %36 = getelementptr inbounds nuw %struct.ndata, ptr %35, i32 0, i32 1
  store i32 0, ptr %36, align 8, !tbaa !31
  store i32 0, ptr %3, align 4
  store i32 1, ptr %8, align 4
  br label %115

37:                                               ; preds = %27, %17
  %38 = load ptr, ptr %4, align 8, !tbaa !21
  %39 = load ptr, ptr %5, align 8, !tbaa !25
  %40 = call ptr @agfstout(ptr noundef %38, ptr noundef %39)
  store ptr %40, ptr %6, align 8, !tbaa !34
  br label %41

41:                                               ; preds = %109, %37
  %42 = load ptr, ptr %6, align 8, !tbaa !34
  %43 = icmp ne ptr %42, null
  br i1 %43, label %44, label %111

44:                                               ; preds = %41
  %45 = load ptr, ptr %4, align 8, !tbaa !21
  %46 = load ptr, ptr %6, align 8, !tbaa !34
  %47 = call ptr @agnxtout(ptr noundef %45, ptr noundef %46)
  store ptr %47, ptr %7, align 8, !tbaa !34
  %48 = load ptr, ptr %6, align 8, !tbaa !34
  %49 = getelementptr inbounds nuw %struct.Agobj_s, ptr %48, i32 0, i32 0
  %50 = load i32, ptr %49, align 8
  %51 = and i32 %50, 3
  %52 = icmp eq i32 %51, 2
  br i1 %52, label %53, label %55

53:                                               ; preds = %44
  %54 = load ptr, ptr %6, align 8, !tbaa !34
  br label %58

55:                                               ; preds = %44
  %56 = load ptr, ptr %6, align 8, !tbaa !34
  %57 = getelementptr inbounds %struct.Agedge_s, ptr %56, i64 -1
  br label %58

58:                                               ; preds = %55, %53
  %59 = phi ptr [ %54, %53 ], [ %57, %55 ]
  %60 = getelementptr inbounds nuw %struct.Agedge_s, ptr %59, i32 0, i32 3
  %61 = load ptr, ptr %60, align 8, !tbaa !36
  %62 = load ptr, ptr %5, align 8, !tbaa !25
  %63 = icmp ne ptr %61, %62
  br i1 %63, label %64, label %108

64:                                               ; preds = %58
  %65 = load i32, ptr @verbose, align 4, !tbaa !4
  %66 = icmp ne i32 %65, 0
  br i1 %66, label %67, label %85

67:                                               ; preds = %64
  %68 = load ptr, ptr @stderr, align 8, !tbaa !17
  %69 = load ptr, ptr %6, align 8, !tbaa !34
  %70 = getelementptr inbounds nuw %struct.Agobj_s, ptr %69, i32 0, i32 0
  %71 = load i32, ptr %70, align 8
  %72 = and i32 %71, 3
  %73 = icmp eq i32 %72, 2
  br i1 %73, label %74, label %76

74:                                               ; preds = %67
  %75 = load ptr, ptr %6, align 8, !tbaa !34
  br label %79

76:                                               ; preds = %67
  %77 = load ptr, ptr %6, align 8, !tbaa !34
  %78 = getelementptr inbounds %struct.Agedge_s, ptr %77, i64 -1
  br label %79

79:                                               ; preds = %76, %74
  %80 = phi ptr [ %75, %74 ], [ %78, %76 ]
  %81 = getelementptr inbounds nuw %struct.Agedge_s, ptr %80, i32 0, i32 3
  %82 = load ptr, ptr %81, align 8, !tbaa !36
  %83 = call ptr @agnameof(ptr noundef %82)
  %84 = call i32 (ptr, ptr, ...) @fprintf(ptr noundef %68, ptr noundef @.str.7, ptr noundef %83) #12
  br label %85

85:                                               ; preds = %79, %64
  %86 = load ptr, ptr %4, align 8, !tbaa !21
  %87 = load ptr, ptr %6, align 8, !tbaa !34
  %88 = getelementptr inbounds nuw %struct.Agobj_s, ptr %87, i32 0, i32 0
  %89 = load i32, ptr %88, align 8
  %90 = and i32 %89, 3
  %91 = icmp eq i32 %90, 2
  br i1 %91, label %92, label %94

92:                                               ; preds = %85
  %93 = load ptr, ptr %6, align 8, !tbaa !34
  br label %97

94:                                               ; preds = %85
  %95 = load ptr, ptr %6, align 8, !tbaa !34
  %96 = getelementptr inbounds %struct.Agedge_s, ptr %95, i64 -1
  br label %97

97:                                               ; preds = %94, %92
  %98 = phi ptr [ %93, %92 ], [ %96, %94 ]
  %99 = getelementptr inbounds nuw %struct.Agedge_s, ptr %98, i32 0, i32 3
  %100 = load ptr, ptr %99, align 8, !tbaa !36
  %101 = call i32 @remove_child(ptr noundef %86, ptr noundef %100)
  %102 = icmp ne i32 %101, 0
  br i1 %102, label %107, label %103

103:                                              ; preds = %97
  %104 = load ptr, ptr %4, align 8, !tbaa !21
  %105 = load ptr, ptr %6, align 8, !tbaa !34
  %106 = call i32 @agdeledge(ptr noundef %104, ptr noundef %105)
  br label %107

107:                                              ; preds = %103, %97
  br label %108

108:                                              ; preds = %107, %58
  br label %109

109:                                              ; preds = %108
  %110 = load ptr, ptr %7, align 8, !tbaa !34
  store ptr %110, ptr %6, align 8, !tbaa !34
  br label %41, !llvm.loop !56

111:                                              ; preds = %41
  %112 = load ptr, ptr %4, align 8, !tbaa !21
  %113 = load ptr, ptr %5, align 8, !tbaa !25
  %114 = call i32 @agdelnode(ptr noundef %112, ptr noundef %113)
  store i32 1, ptr %3, align 4
  store i32 1, ptr %8, align 4
  br label %115

115:                                              ; preds = %111, %32, %16
  call void @llvm.lifetime.end.p0(i64 8, ptr %7) #12
  call void @llvm.lifetime.end.p0(i64 8, ptr %6) #12
  %116 = load i32, ptr %3, align 4
  ret i32 %116
}