; Function Attrs: nounwind uwtable
define internal fastcc range(i32 0, 2) i32 @remove_child(ptr noundef nonnull %0, ptr noundef %1) unnamed_addr #10 {
  %3 = getelementptr inbounds nuw i8, ptr %1, i64 16
  %4 = load ptr, ptr %3, align 8, !tbaa !20
  %5 = getelementptr inbounds nuw i8, ptr %4, i64 16
  %6 = load i32, ptr %5, align 8, !tbaa !25
  %7 = and i32 %6, 1
  %.not = icmp eq i32 %7, 0
  br i1 %.not, label %8, label %41

8:                                                ; preds = %2
  store i32 1, ptr %5, align 8, !tbaa !25
  %9 = tail call ptr @agfstin(ptr noundef nonnull %0, ptr noundef nonnull %1) #18
  %.not32 = icmp eq ptr %9, null
  br i1 %.not32, label %15, label %10

10:                                               ; preds = %8
  %11 = tail call ptr @agnxtin(ptr noundef nonnull %0, ptr noundef nonnull %9) #18
  %.not33 = icmp eq ptr %11, null
  br i1 %.not33, label %15, label %12

12:                                               ; preds = %10
  %13 = load ptr, ptr %3, align 8, !tbaa !20
  %14 = getelementptr inbounds nuw i8, ptr %13, i64 16
  store i32 0, ptr %14, align 8, !tbaa !25
  br label %41

15:                                               ; preds = %10, %8
  %16 = tail call ptr @agfstout(ptr noundef nonnull %0, ptr noundef nonnull %1) #18
  %.not3438 = icmp eq ptr %16, null
  br i1 %.not3438, label %._crit_edge, label %.lr.ph

.lr.ph:                                           ; preds = %15, %39
  %.02939 = phi ptr [ %17, %39 ], [ %16, %15 ]
  %17 = tail call ptr @agnxtout(ptr noundef nonnull %0, ptr noundef nonnull %.02939) #18
  %18 = load i32, ptr %.02939, align 8
  %19 = and i32 %18, 3
  %20 = icmp eq i32 %19, 2
  %21 = getelementptr inbounds i8, ptr %.02939, i64 -64
  %22 = select i1 %20, ptr %.02939, ptr %21
  %23 = getelementptr inbounds nuw i8, ptr %22, i64 56
  %24 = load ptr, ptr %23, align 8, !tbaa !28
  %.not35 = icmp eq ptr %24, %1
  br i1 %.not35, label %39, label %25

25:                                               ; preds = %.lr.ph
  %26 = load i32, ptr @verbose, align 4, !tbaa !4
  %.not36 = icmp eq i32 %26, 0
  br i1 %.not36, label %31, label %27

27:                                               ; preds = %25
  %28 = load ptr, ptr @stderr, align 8, !tbaa !11
  %29 = tail call ptr @agnameof(ptr noundef %24) #18
  %30 = tail call i32 (ptr, ptr, ...) @fprintf(ptr noundef %28, ptr noundef nonnull @.str.7, ptr noundef %29) #20
  %.pre = load i32, ptr %.02939, align 8
  %.pre40 = and i32 %.pre, 3
  br label %31

31:                                               ; preds = %27, %25
  %.pre-phi = phi i32 [ %.pre40, %27 ], [ %19, %25 ]
  %32 = icmp eq i32 %.pre-phi, 2
  %33 = select i1 %32, ptr %.02939, ptr %21
  %34 = getelementptr inbounds nuw i8, ptr %33, i64 56
  %35 = load ptr, ptr %34, align 8, !tbaa !28
  %36 = tail call fastcc i32 @remove_child(ptr noundef %0, ptr noundef %35)
  %.not37 = icmp eq i32 %36, 0
  br i1 %.not37, label %37, label %39

37:                                               ; preds = %31
  %38 = tail call i32 @agdeledge(ptr noundef nonnull %0, ptr noundef nonnull %.02939) #18
  br label %39

39:                                               ; preds = %.lr.ph, %37, %31
  %.not34 = icmp eq ptr %17, null
  br i1 %.not34, label %._crit_edge, label %.lr.ph, !llvm.loop !37

._crit_edge:                                      ; preds = %39, %15
  %40 = tail call i32 @agdelnode(ptr noundef nonnull %0, ptr noundef nonnull %1) #18
  br label %41

41:                                               ; preds = %2, %._crit_edge, %12
  %.0 = phi i32 [ 0, %12 ], [ 1, %._crit_edge ], [ 0, %2 ]
  ret i32 %.0
}